(lp1
I1005
aI252
aI38
aI801
aI573
aI235
aI81
aI544
aI843
aI6
aI1011
aI278
aI1044
aI202
aI1140
aI227
aI834
aI1113
aI309
aI163
aI1086
aI1118
aI452
aI90
aI713
aI65
aI967
aI292
aI51
aI206
aI371
aI990
aI686
aI802
aI89
aI1052
aI454
aI29
aI707
aI487
aI902
aI699
aI344
aI995
aI320
aI807
aI193
aI210
aI191
aI248
aI1006
aI122
aI1130
aI814
aI552
aI611
aI912
aI585
aI1102
aI634
aI313
aI477
aI770
aI82
aI492
aI519
aI9
aI935
aI311
aI1029
aI537
aI584
aI790
aI266
aI717
aI984
aI929
aI679
aI374
aI75
aI603
aI387
aI480
aI772
aI695
aI1091
aI1097
aI245
aI442
aI133
aI1058
aI8
aI476
aI467
aI946
aI1066
aI92
aI920
aI200
aI1017
aI637
aI692
aI526
aI1117
aI1072
aI10
aI708
aI429
aI639
aI1135
aI744
aI19
aI85
aI974
aI978
aI1111
aI780
aI598
aI621
aI666
aI980
aI134
aI624
aI388
aI346
aI316
aI86
aI657
aI236
aI152
aI319
aI246
aI626
aI382
aI507
aI836
aI730
aI70
aI636
aI1103
aI34
aI37
aI1082
aI1016
aI215
aI332
aI745
aI647
aI229
aI109
aI497
aI1071
aI851
aI447
aI147
aI664
aI752
aI1112
aI566
aI825
aI165
aI576
aI556
aI408
aI211
aI40
aI315
aI422
aI76
aI798
aI619
aI1067
aI323
aI99
aI579
aI646
aI288
aI643
aI169
aI14
aI322
aI284
aI136
aI817
aI642
aI786
aI144
aI932
aI25
aI764
aI970
aI791
aI432
aI72
aI968
aI759
aI933
aI17
aI774
aI1033
aI230
aI50
aI1046
aI348
aI824
aI177
aI297
aI438
aI464
aI574
aI306
aI403
aI701
aI162
aI606
aI577
aI543
aI308
aI375
aI1061
aI1025
aI631
aI1037
aI615
aI510
aI729
aI1107
aI83
aI181
aI295
aI908
aI244
aI681
aI132
aI723
aI826
aI954
aI1142
aI1089
aI201
aI505
aI567
aI5
aI587
aI409
aI784
aI987
aI405
aI924
aI625
aI490
aI1065
aI124
aI222
aI161
aI427
aI157
aI1144
aI653
aI212
aI1069
aI69
aI428
aI665
aI765
aI532
aI553
aI354
aI604
aI733
aI568
aI253
aI474
aI753
aI504
aI1035
aI879
aI1057
aI1018
aI595
aI650
aI234
aI583
aI102
aI114
aI1001
aI275
aI259
aI622
aI435
aI739
aI651
aI261
aI1114
aI618
aI1036
aI934
aI540
aI326
aI1109
aI307
aI97
aI68
aI1083
aI436
aI47
aI1048
aI522
aI302
aI982
aI473
aI305
aI886
aI462
aI913
aI499
aI45
aI226
aI1063
aI91
aI175
aI397
aI217
aI314
aI270
aI54
aI312
aI727
aI1116
aI66
aI129
aI1122
aI533
aI914
aI58
aI1060
aI895
aI250
aI170
aI293
aI991
aI339
aI494
aI439
aI972
aI800
aI1078
aI557
aI725
aI208
aI859
aI569
aI430
aI1121
aI31
aI612
aI1024
aI372
aI711
aI694
aI151
aI62
aI957
aI279
aI805
aI937
aI485
aI231
aI21
aI554
aI357
aI451
aI216
aI142
aI459
aI347
aI59
aI247
aI1039
aI1095
aI101
aI985
aI105
aI925
aI282
aI154
aI555
aI335
aI797
aI1139
aI501
aI965
aI644
aI119
aI620
aI515
aI724
aI547
aI1041
aI503
aI172
aI205
aI260
aI906
aI369
aI465
aI491
aI704
aI471
aI975
aI421
aI758
aI1077
aI265
aI359
aI138
aI12
aI977
aI1053
aI821
aI548
aI842
aI761
aI385
aI656
aI868
aI340
aI685
aI364
aI783
aI380
aI720
aI1049
aI561
aI1123
aI146
aI594
aI366
aI168
aI575
aI414
aI767
aI959
aI835
aI718
aI373
aI324
aI330
aI423
aI416
aI1084
aI338
aI709
aI445
aI463
aI242
aI1047
aI502
aI996
aI1064
aI35
aI888
aI301
aI1009
aI120
aI760
aI671
aI384
aI731
aI264
aI509
aI1054
aI1034
aI425
aI958
aI1096
aI325
aI1028
aI771
aI1125
aI470
aI294
aI1030
aI732
aI536
aI847
aI850
aI237
aI668
aI969
aI258
aI865
aI877
aI614
aI1094
aI126
aI183
aI117
aI578
aI287
aI358
aI565
aI444
aI143
aI942
aI737
aI572
aI541
aI243
aI735
aI1002
aI819
aI1099
aI390
aI1027
aI186
aI591
aI49
aI884
aI1032
aI495
aI1004
aI873
aI1074
aI57
aI254
aI838
aI197
aI571
aI192
aI336
aI296
aI396
aI481
aI328
aI792
aI27
aI273
aI538
aI749
aI890
aI804
aI285
aI869
aI26
aI740
aI816
aI440
aI84
aI989
aI872
aI539
aI241
aI33
aI712
aI971
aI128
aI818
aI844
aI434
aI616
aI15
aI658
aI1073
aI103
aI52
aI722
aI130
aI1126
aI1013
aI773
aI940
aI993
aI1138
aI1100
aI629
aI520
aI36
aI649
aI871
aI560
aI652
aI32
aI475
aI456
aI118
aI223
aI887
aI608
aI909
aI558
aI176
aI395
aI864
aI1075
aI627
aI988
aI1087
aI450
aI455
aI938
aI947
aI860
aI518
aI589
aI343
aI402
aI291
aI219
aI478
aI919
aI94
aI682
aI870
aI542
aI787
aI276
aI757
aI289
aI523
aI159
aI368
aI391
aI706
aI108
aI1088
aI88
aI420
aI1019
aI811
aI1015
aI228
aI950
aI609
aI916
aI875
aI116
aI880
aI64
aI1008
aI882
aI915
aI716
aI545
aI376
aI93
aI155
aI881
aI897
aI597
aI349
aI687
aI337
aI885
aI1055
aI810
aI139
aI56
aI1141
aI327
aI352
aI632
aI453
aI662
aI174
aI187
aI433
aI46
aI150
aI964
aI145
aI1059
aI1131
aI1068
aI788
aI714
aI931
aI448
aI833
aI466
aI776
aI310
aI944
aI593
aI24
aI443
aI590
aI401
aI795
aI635
aI846
aI676
aI410
aI581
aI255
aI60
aI1143
aI221
aI115
aI592
aI853
aI766
aI674
aI148
aI955
aI747
aI750
aI976
aI928
aI762
aI600
aI1010
aI956
aI949
aI670
aI489
aI1090
aI257
aI922
aI1080
aI663
aI178
aI710
aI941
aI617
aI73
aI998
aI194
aI262
aI863
aI1127
aI1124
aI812
aI220
aI1081
aI188
aI667
aI799
aI660
aI486
aI669
aI110
aI360
aI960
aI1104
aI404
aI874
aI500
aI483
aI648
aI225
aI329
aI516
aI1062
aI741
aI1045
aI794
aI1106
aI496
aI457
aI1079
aI535
aI857
aI238
aI1101
aI468
aI837
aI370
aI48
aI345
aI534
aI209
aI3
aI981
aI1110
aI840
aI417
aI691
aI823
aI628
aI263
aI936
aI672
aI564
aI232
aI848
aI171
aI506
aI431
aI399
aI734
aI44
aI923
aI813
aI511
aI1129
aI512
aI828
aI900
aI1051
aI199
aI939
aI18
aI973
aI334
aI123
aI158
aI948
aI904
aI763
aI361
aI889
aI689
aI269
aI386
aI754
aI789
aI87
aI77
aI841
aI1022
aI751
aI893
aI239
aI728
aI756
aI529
aI167
aI921
aI1134
aI67
aI271
aI633
aI655
aI166
aI383
aI300
a.