(lp1
I311
aI285
aI411
aI259
aI115
aI113
aI293
aI98
aI20
aI313
aI470
aI476
aI412
aI427
aI85
aI300
aI305
aI166
aI81
aI484
aI418
aI420
aI405
aI221
aI210
aI189
aI472
aI342
aI106
aI379
aI219
aI171
aI86
aI410
aI223
aI304
aI494
aI375
aI136
aI332
aI144
aI226
aI384
aI64
aI195
aI165
aI425
aI63
aI152
aI125
aI424
aI279
aI414
aI62
aI134
aI487
aI303
aI148
aI39
aI46
aI308
aI34
aI460
aI446
aI135
aI403
aI438
aI298
aI319
aI168
aI231
aI395
aI289
aI415
aI61
aI238
aI341
aI55
aI127
aI77
aI439
aI71
aI315
aI306
aI284
aI296
aI122
aI7
aI103
aI0
aI110
aI70
aI124
aI400
aI364
aI246
aI436
aI383
aI477
aI373
aI254
aI475
aI492
aI261
aI169
aI275
aI207
aI126
aI53
aI422
aI26
aI347
aI370
aI277
aI253
aI164
aI469
aI201
aI391
aI248
aI147
aI243
aI260
aI157
aI88
aI390
aI16
aI258
aI394
aI282
aI348
aI31
aI237
aI177
aI40
aI116
aI302
aI386
aI8
aI454
aI437
aI429
aI23
aI154
aI95
aI59
aI21
aI434
aI121
aI22
aI380
aI179
aI357
aI317
aI393
aI339
aI335
aI213
aI229
aI266
aI28
aI330
aI143
aI32
aI320
aI241
aI234
aI104
aI249
aI57
aI406
aI161
aI130
aI441
aI185
aI50
aI10
aI173
aI331
aI216
aI75
aI67
aI214
aI385
aI401
aI337
aI107
aI461
aI58
aI120
aI264
aI413
aI452
aI159
aI363
aI276
aI359
aI184
aI1
aI465
aI334
aI43
aI101
aI202
aI203
aI222
aI336
aI220
aI52
aI366
aI72
aI33
aI183
aI15
aI228
aI268
aI196
aI242
aI204
aI482
aI451
aI5
aI65
aI456
aI37
aI4
aI351
aI117
aI355
aI407
aI409
aI142
aI255
aI68
aI365
aI270
aI235
aI211
aI402
aI105
aI464
aI288
aI172
aI215
aI338
aI180
aI17
aI227
aI449
aI225
aI491
aI299
aI138
aI408
aI371
aI131
aI42
aI156
aI333
aI324
aI146
aI345
aI292
aI369
aI272
aI129
aI24
aI176
aI111
aI99
aI190
aI232
aI56
aI281
aI274
aI417
aI443
aI462
aI123
aI198
aI280
aI250
aI459
aI445
aI155
aI372
aI240
aI473
aI236
aI191
aI287
aI92
aI25
aI245
aI389
aI448
aI141
aI200
aI343
aI54
aI326
aI181
aI378
aI27
aI432
aI321
aI262
aI93
aI431
aI36
aI294
aI382
aI329
aI13
aI194
aI162
aI349
aI485
aI419
aI170
aI140
aI109
aI193
aI2
aI265
aI252
aI12
aI352
aI80
aI187
aI283
aI244
aI309
aI118
aI174
aI368
aI160
aI447
aI387
aI468
aI49
aI463
aI66
aI100
aI133
aI205
aI416
aI6
aI18
aI87
aI488
aI267
aI340
aI440
aI297
aI206
aI358
aI291
aI256
aI3
aI354
aI137
aI426
aI290
aI381
aI239
aI114
a.